; Function Attrs: mustprogress uwtable
define internal fastcc void @_ZZN8facebook5velox4bits10forEachBitIZNKS0_9functions12_GLOBAL__N_121ArraysOverlapFunctionInE5applyERKNS0_17SelectivityVectorERSt6vectorISt10shared_ptrINS0_10BaseVectorEESaISD_EERKSB_IKNS0_4TypeEERNS0_4exec7EvalCtxERSD_EUliE0_EEvPKmiibT_ENKUlimE_clEim(ptr nocapture noundef nonnull readonly align 8 dereferenceable(56) %this, i32 noundef %idx, i64 noundef %mask) unnamed_addr #0 align 2 {
entry:
  %0 = load i8, ptr %this, align 8
  %1 = and i8 %0, 1
  %2 = getelementptr inbounds i8, ptr %this, i64 8
  %3 = load ptr, ptr %2, align 8
  %idxprom2 = sext i32 %idx to i64
  %arrayidx3 = getelementptr inbounds i64, ptr %3, i64 %idxprom2
  %4 = load i64, ptr %arrayidx3, align 8
  %sext = add nsw i8 %1, -1
  %not = sext i8 %sext to i64
  %cond = xor i64 %4, %not
  %and = and i64 %cond, %mask
  %tobool4.not = icmp eq i64 %and, 0
  br i1 %tobool4.not, label %while.end, label %while.body.preheader

while.body.preheader:                             ; preds = %entry
  %5 = getelementptr inbounds i8, ptr %this, i64 16
  %mul = shl nsw i32 %idx, 6
  %6 = getelementptr inbounds i8, ptr %this, i64 24
  %7 = getelementptr inbounds i8, ptr %this, i64 32
  %8 = getelementptr inbounds i8, ptr %this, i64 40
  %9 = getelementptr inbounds i8, ptr %this, i64 48
  br label %while.body

while.body:                                       ; preds = %while.body.preheader, %_ZZNK8facebook5velox9functions12_GLOBAL__N_121ArraysOverlapFunctionInE5applyERKNS0_17SelectivityVectorERSt6vectorISt10shared_ptrINS0_10BaseVectorEESaISB_EERKS9_IKNS0_4TypeEERNS0_4exec7EvalCtxERSB_ENKUliE0_clEi.exit
  %word.0 = phi i64 [ %and6, %_ZZNK8facebook5velox9functions12_GLOBAL__N_121ArraysOverlapFunctionInE5applyERKNS0_17SelectivityVectorERSt6vectorISt10shared_ptrINS0_10BaseVectorEESaISB_EERKS9_IKNS0_4TypeEERNS0_4exec7EvalCtxERSB_ENKUliE0_clEi.exit ], [ %and, %while.body.preheader ]
  %10 = tail call i64 @llvm.cttz.i64(i64 %word.0, i1 true), !range !375
  %cast = trunc i64 %10 to i32
  %add = or disjoint i32 %mul, %cast
  %11 = load ptr, ptr %5, align 8
  %call.i = tail call noundef ptr @_ZN8facebook5velox4exec18LocalDecodedVector3getEv(ptr noundef nonnull align 8 dereferenceable(16) %11)
  %isIdentityMapping_.i.i = getelementptr inbounds i8, ptr %call.i, i64 58
  %12 = load i8, ptr %isIdentityMapping_.i.i, align 2
  %13 = and i8 %12, 1
  %tobool.not.i.i = icmp eq i8 %13, 0
  br i1 %tobool.not.i.i, label %if.end.i.i, label %_ZZNK8facebook5velox9functions12_GLOBAL__N_121ArraysOverlapFunctionInE5applyERKNS0_17SelectivityVectorERSt6vectorISt10shared_ptrINS0_10BaseVectorEESaISB_EERKS9_IKNS0_4TypeEERNS0_4exec7EvalCtxERSB_ENKUliE0_clEi.exit

if.end.i.i:                                       ; preds = %while.body
  %isConstantMapping_.i.i = getelementptr inbounds i8, ptr %call.i, i64 59
  %14 = load i8, ptr %isConstantMapping_.i.i, align 1
  %15 = and i8 %14, 1
  %tobool2.not.i.i = icmp eq i8 %15, 0
  br i1 %tobool2.not.i.i, label %if.end4.i.i, label %if.then3.i.i

if.then3.i.i:                                     ; preds = %if.end.i.i
  %constantIndex_.i.i = getelementptr inbounds i8, ptr %call.i, i64 64
  %16 = load i32, ptr %constantIndex_.i.i, align 8
  br label %_ZZNK8facebook5velox9functions12_GLOBAL__N_121ArraysOverlapFunctionInE5applyERKNS0_17SelectivityVectorERSt6vectorISt10shared_ptrINS0_10BaseVectorEESaISB_EERKS9_IKNS0_4TypeEERNS0_4exec7EvalCtxERSB_ENKUliE0_clEi.exit

if.end4.i.i:                                      ; preds = %if.end.i.i
  %indices_.i.i = getelementptr inbounds i8, ptr %call.i, i64 8
  %17 = load ptr, ptr %indices_.i.i, align 8
  %idxprom.i.i = sext i32 %add to i64
  %arrayidx.i.i = getelementptr inbounds i32, ptr %17, i64 %idxprom.i.i
  %18 = load i32, ptr %arrayidx.i.i, align 4
  br label %_ZZNK8facebook5velox9functions12_GLOBAL__N_121ArraysOverlapFunctionInE5applyERKNS0_17SelectivityVectorERSt6vectorISt10shared_ptrINS0_10BaseVectorEESaISB_EERKS9_IKNS0_4TypeEERNS0_4exec7EvalCtxERSB_ENKUliE0_clEi.exit

_ZZNK8facebook5velox9functions12_GLOBAL__N_121ArraysOverlapFunctionInE5applyERKNS0_17SelectivityVectorERSt6vectorISt10shared_ptrINS0_10BaseVectorEESaISB_EERKS9_IKNS0_4TypeEERNS0_4exec7EvalCtxERSB_ENKUliE0_clEi.exit: ; preds = %while.body, %if.then3.i.i, %if.end4.i.i
  %retval.0.i.i = phi i32 [ %16, %if.then3.i.i ], [ %18, %if.end4.i.i ], [ %add, %while.body ]
  %19 = load ptr, ptr %6, align 8
  %20 = load ptr, ptr %19, align 8
  %21 = load ptr, ptr %7, align 8
  %22 = load ptr, ptr %21, align 8
  %23 = load ptr, ptr %8, align 8
  %24 = getelementptr i8, ptr %20, i64 112
  %.val.i = load ptr, ptr %24, align 8
  %25 = getelementptr i8, ptr %20, i64 128
  %.val2.i = load ptr, ptr %25, align 8
  tail call fastcc void @_ZN8facebook5velox9functions12_GLOBAL__N_111generateSetInNS0_13DecodedVectorEEEvPKNS0_11ArrayVectorEPKT0_iRNS2_11SetWithNullIT_EE(ptr %.val.i, ptr %.val2.i, ptr noundef %22, i32 noundef %retval.0.i.i, ptr noundef nonnull align 8 dereferenceable(33) %23)
  %26 = load ptr, ptr %9, align 8
  %27 = load ptr, ptr %8, align 8
  tail call fastcc void @_ZZNK8facebook5velox9functions12_GLOBAL__N_121ArraysOverlapFunctionInE5applyERKNS0_17SelectivityVectorERSt6vectorISt10shared_ptrINS0_10BaseVectorEESaISB_EERKS9_IKNS0_4TypeEERNS0_4exec7EvalCtxERSB_ENKUlT_RKNS2_11SetWithNullInEEE_clIiEEDaSO_SS_(ptr noundef nonnull align 8 dereferenceable(32) %26, i32 noundef %add, ptr noundef nonnull align 8 dereferenceable(33) %27)
  %sub = add i64 %word.0, -1
  %and6 = and i64 %sub, %word.0
  %tobool5.old.not = icmp eq i64 %and6, 0
  br i1 %tobool5.old.not, label %while.end, label %while.body

while.end:                                        ; preds = %_ZZNK8facebook5velox9functions12_GLOBAL__N_121ArraysOverlapFunctionInE5applyERKNS0_17SelectivityVectorERSt6vectorISt10shared_ptrINS0_10BaseVectorEESaISB_EERKS9_IKNS0_4TypeEERNS0_4exec7EvalCtxERSB_ENKUliE0_clEi.exit, %entry
  ret void
}